; Function Attrs: nofree norecurse nosync nounwind memory(read, argmem: readwrite, inaccessiblemem: none) uwtable
define noundef i32 @SUNDlsMat_DenseORMQR(ptr noundef readonly captures(none) %0, ptr noundef readonly captures(none) %1, ptr noundef readonly captures(none) %2, ptr noundef captures(none) %3, ptr noundef captures(none) %4) local_unnamed_addr #1 {
  %6 = getelementptr inbounds nuw i8, ptr %0, i64 72
  %7 = load ptr, ptr %6, align 8, !tbaa !3
  %8 = getelementptr inbounds nuw i8, ptr %0, i64 8
  %9 = load i64, ptr %8, align 8, !tbaa !12
  %10 = getelementptr inbounds nuw i8, ptr %0, i64 16
  %11 = load i64, ptr %10, align 8, !tbaa !13
  %12 = icmp sgt i64 %11, 0
  br i1 %12, label %.lr.ph.i, label %.preheader53.i

.preheader53.i:                                   ; preds = %.lr.ph.i, %5
  %13 = icmp slt i64 %11, %9
  br i1 %13, label %.lr.ph56.preheader.i, label %.preheader.i

.lr.ph56.preheader.i:                             ; preds = %.preheader53.i
  %14 = shl i64 %11, 3
  %scevgep.i = getelementptr i8, ptr %3, i64 %14
  %15 = sub i64 %9, %11
  %16 = shl i64 %15, 3
  tail call void @llvm.memset.p0.i64(ptr align 8 %scevgep.i, i8 0, i64 %16, i1 false), !tbaa !15
  br label %.preheader.i

.lr.ph.i:                                         ; preds = %5, %.lr.ph.i
  %.04854.i = phi i64 [ %20, %.lr.ph.i ], [ 0, %5 ]
  %17 = getelementptr inbounds nuw double, ptr %2, i64 %.04854.i
  %18 = load double, ptr %17, align 8, !tbaa !15
  %19 = getelementptr inbounds nuw double, ptr %3, i64 %.04854.i
  store double %18, ptr %19, align 8, !tbaa !15
  %20 = add nuw nsw i64 %.04854.i, 1
  %exitcond.not.i = icmp eq i64 %20, %11
  br i1 %exitcond.not.i, label %.preheader53.i, label %.lr.ph.i

.preheader.i:                                     ; preds = %.lr.ph56.preheader.i, %.preheader53.i
  br i1 %12, label %.lr.ph66.preheader.i, label %SUNDlsMat_denseORMQR.exit

.lr.ph66.preheader.i:                             ; preds = %.preheader.i
  %21 = add i64 %9, 1
  %22 = sub i64 %21, %11
  br label %.lr.ph66.i

.loopexit.i:                                      ; preds = %44, %._crit_edge.i
  %23 = icmp sgt i64 %.065.in.i, 1
  %indvars.iv.next.i = add i64 %indvars.iv.i, 1
  br i1 %23, label %.lr.ph66.i, label %SUNDlsMat_denseORMQR.exit

.lr.ph66.i:                                       ; preds = %.loopexit.i, %.lr.ph66.preheader.i
  %indvars.iv.i = phi i64 [ %22, %.lr.ph66.preheader.i ], [ %indvars.iv.next.i, %.loopexit.i ]
  %.065.in.i = phi i64 [ %11, %.lr.ph66.preheader.i ], [ %.065.i, %.loopexit.i ]
  %.065.i = add nsw i64 %.065.in.i, -1
  %24 = getelementptr inbounds nuw ptr, ptr %7, i64 %.065.i
  %25 = load ptr, ptr %24, align 8, !tbaa !14
  store double 1.000000e+00, ptr %4, align 8, !tbaa !15
  %26 = getelementptr double, ptr %3, i64 %.065.i
  %27 = load double, ptr %26, align 8, !tbaa !15
  %28 = sub nsw i64 %9, %.065.i
  %29 = icmp sgt i64 %28, 1
  br i1 %29, label %.lr.ph59.i, label %._crit_edge.i

.lr.ph59.i:                                       ; preds = %.lr.ph66.i, %.lr.ph59.i
  %.258.i = phi i64 [ %37, %.lr.ph59.i ], [ 1, %.lr.ph66.i ]
  %.04957.i = phi double [ %36, %.lr.ph59.i ], [ %27, %.lr.ph66.i ]
  %30 = add nsw i64 %.258.i, %.065.i
  %31 = getelementptr inbounds double, ptr %25, i64 %30
  %32 = load double, ptr %31, align 8, !tbaa !15
  %33 = getelementptr inbounds nuw double, ptr %4, i64 %.258.i
  store double %32, ptr %33, align 8, !tbaa !15
  %34 = getelementptr inbounds double, ptr %3, i64 %30
  %35 = load double, ptr %34, align 8, !tbaa !15
  %36 = tail call double @llvm.fmuladd.f64(double %32, double %35, double %.04957.i)
  %37 = add nuw nsw i64 %.258.i, 1
  %38 = icmp slt i64 %37, %28
  br i1 %38, label %.lr.ph59.i, label %._crit_edge.i

._crit_edge.i:                                    ; preds = %.lr.ph59.i, %.lr.ph66.i
  %.049.lcssa.i = phi double [ %27, %.lr.ph66.i ], [ %36, %.lr.ph59.i ]
  %39 = icmp sgt i64 %28, 0
  br i1 %39, label %.lr.ph63.i, label %.loopexit.i

.lr.ph63.i:                                       ; preds = %._crit_edge.i
  %40 = getelementptr inbounds nuw double, ptr %1, i64 %.065.i
  %41 = load double, ptr %40, align 8, !tbaa !15
  %42 = fneg double %41
  %43 = fmul double %.049.lcssa.i, %42
  br label %44

44:                                               ; preds = %44, %.lr.ph63.i
  %.361.i = phi i64 [ 0, %.lr.ph63.i ], [ %49, %44 ]
  %45 = getelementptr inbounds nuw double, ptr %4, i64 %.361.i
  %46 = load double, ptr %45, align 8, !tbaa !15
  %gep.i = getelementptr double, ptr %26, i64 %.361.i
  %47 = load double, ptr %gep.i, align 8, !tbaa !15
  %48 = tail call double @llvm.fmuladd.f64(double %43, double %46, double %47)
  store double %48, ptr %gep.i, align 8, !tbaa !15
  %49 = add nuw nsw i64 %.361.i, 1
  %exitcond69.not.i = icmp eq i64 %49, %indvars.iv.i
  br i1 %exitcond69.not.i, label %.loopexit.i, label %44

SUNDlsMat_denseORMQR.exit:                        ; preds = %.loopexit.i, %.preheader.i
  ret i32 0
}